Certificate:
    Data:
        Version: 3 (0x2)
        Serial Number: 286 (0x11e)
    Signature Algorithm: sha1WithRSAEncryption
        Issuer: C=CN, ST=Shanghai, L=Baoshan, O=Smartlink Org, OU=Server Develop Group, CN=localhost/emailAddress=goldenhawking@163.com
        Validity
            Not Before: Jan 10 04:56:29 2014 GMT
            Not After : Jan  8 04:56:29 2024 GMT
        Subject: C=CN, ST=Shanghai, O=Smartlink Org, OU=Server Develop Group, CN=localhost/emailAddress=goldenhawking@163.com
        Subject Public Key Info:
            Public Key Algorithm: rsaEncryption
                Public-Key: (2048 bit)
                Modulus:
                    00:f5:ba:05:bb:9f:09:25:d4:18:fa:a4:81:16:57:
                    88:78:12:00:ac:cd:c9:b2:ae:42:f3:e4:60:9c:5f:
                    df:3b:8f:11:da:96:49:42:3a:5d:f8:f9:8d:66:f0:
                    aa:ef:76:f3:f1:4a:0d:9c:cb:59:aa:f9:7f:de:c3:
                    96:90:9e:af:f1:ca:7b:4b:49:eb:e1:a6:19:62:5d:
                    c4:e7:d3:f2:71:44:fb:e0:a7:1f:e4:76:b8:21:97:
                    52:a0:c1:0f:4a:98:2a:e7:40:76:49:97:06:21:3c:
                    b2:7a:72:7f:50:5a:39:ad:00:e8:2d:93:44:2c:35:
                    e7:f3:78:51:4b:1c:3a:7b:ac:83:fd:c7:a4:26:da:
                    67:0b:eb:d1:6b:43:17:df:b1:9b:8b:82:7d:ac:5f:
                    13:ae:32:c0:81:f4:5a:6f:27:1a:b6:ac:5e:9d:64:
                    7d:33:b1:c8:aa:7b:bf:3a:52:05:45:bc:90:31:8b:
                    f8:de:8a:a5:f0:a8:a7:f2:ae:a9:58:97:1c:2f:bd:
                    3e:64:a3:b4:8b:26:2d:ec:cb:32:d5:c5:b6:00:c1:
                    87:b2:4f:4e:d4:af:99:65:80:75:72:eb:2b:fa:f6:
                    3f:f8:68:87:7a:c8:44:79:fb:35:dd:02:89:63:7f:
                    e1:c0:62:30:6b:40:0f:ed:a9:57:2e:66:61:99:92:
                    f1:fb
                Exponent: 65537 (0x10001)
        X509v3 extensions:
            X509v3 Basic Constraints: 
                CA:FALSE
            Netscape Comment: 
                OpenSSL Generated Certificate
            X509v3 Subject Key Identifier: 
                2D:89:0F:E5:7D:AD:A1:8A:BB:75:98:8D:39:CF:3B:14:50:13:EA:93
            X509v3 Authority Key Identifier: 
                keyid:A0:FF:6B:4E:F2:2E:33:8C:2F:01:33:E8:1B:DA:B1:AC:3C:86:17:DE

    Signature Algorithm: sha1WithRSAEncryption
         9a:e2:39:17:17:4b:bb:f0:ff:63:2f:0f:67:1d:3d:d7:55:8e:
         7d:d5:cb:9b:f2:6e:c5:7d:97:e2:de:6a:ba:a3:0f:58:32:d8:
         d9:d1:40:74:b4:9c:61:02:e2:c0:e8:bf:86:1c:40:d5:74:70:
         9d:0e:da:b8:40:9a:b6:7f:ea:16:96:09:67:6f:e6:0a:bf:b7:
         02:aa:36:0a:0c:a6:01:c8:f8:fa:2d:b3:e5:ad:ce:23:d3:16:
         15:4d:ea:f2:57:90:14:78:ec:ae:98:c1:77:58:62:c9:7a:e9:
         cf:c0:7b:a7:06:b6:7a:a7:ea:1b:44:d1:44:10:b1:64:77:13:
         02:ec:f3:f7:65:d2:83:3c:3f:ac:da:ed:73:2e:30:5a:f6:66:
         84:ed:96:0c:13:a1:06:6d:62:b7:0f:96:b1:12:a0:67:e5:ac:
         ae:36:e5:cf:e7:9b:ba:f9:af:cb:e0:5e:0e:d1:f0:7b:48:02:
         aa:f3:5a:a2:17:33:f5:f1:56:f2:83:e5:be:ed:29:96:da:d8:
         fc:e1:c2:29:b5:67:4e:ae:ef:56:7a:7c:ce:c3:c0:fb:3e:7f:
         e7:7f:26:71:bf:58:f9:36:f7:6b:25:d5:7f:63:10:c2:8a:4e:
         26:42:0a:34:93:30:98:88:b6:e1:c0:9b:8f:db:67:74:01:da:
         31:db:26:a7
-----BEGIN CERTIFICATE-----
MIIELTCCAxWgAwIBAgICAR4wDQYJKoZIhvcNAQEFBQAwgaMxCzAJBgNVBAYTAkNO
MREwDwYDVQQIDAhTaGFuZ2hhaTEQMA4GA1UEBwwHQmFvc2hhbjEWMBQGA1UECgwN
U21hcnRsaW5rIE9yZzEdMBsGA1UECwwUU2VydmVyIERldmVsb3AgR3JvdXAxEjAQ
BgNVBAMMCWxvY2FsaG9zdDEkMCIGCSqGSIb3DQEJARYVZ29sZGVuaGF3a2luZ0Ax
NjMuY29tMB4XDTE0MDExMDA0NTYyOVoXDTI0MDEwODA0NTYyOVowgZExCzAJBgNV
BAYTAkNOMREwDwYDVQQIDAhTaGFuZ2hhaTEWMBQGA1UECgwNU21hcnRsaW5rIE9y
ZzEdMBsGA1UECwwUU2VydmVyIERldmVsb3AgR3JvdXAxEjAQBgNVBAMMCWxvY2Fs
aG9zdDEkMCIGCSqGSIb3DQEJARYVZ29sZGVuaGF3a2luZ0AxNjMuY29tMIIBIjAN
BgkqhkiG9w0BAQEFAAOCAQ8AMIIBCgKCAQEA9boFu58JJdQY+qSBFleIeBIArM3J
sq5C8+RgnF/fO48R2pZJQjpd+PmNZvCq73bz8UoNnMtZqvl/3sOWkJ6v8cp7S0nr
4aYZYl3E59PycUT74Kcf5Ha4IZdSoMEPSpgq50B2SZcGITyyenJ/UFo5rQDoLZNE
LDXn83hRSxw6e6yD/cekJtpnC+vRa0MX37Gbi4J9rF8TrjLAgfRabycatqxenWR9
M7HIqnu/OlIFRbyQMYv43oql8Kin8q6pWJccL70+ZKO0iyYt7Msy1cW2AMGHsk9O
1K+ZZYB1cusr+vY/+GiHeshEefs13QKJY3/hwGIwa0AP7alXLmZhmZLx+wIDAQAB
o3sweTAJBgNVHRMEAjAAMCwGCWCGSAGG+EIBDQQfFh1PcGVuU1NMIEdlbmVyYXRl
ZCBDZXJ0aWZpY2F0ZTAdBgNVHQ4EFgQULYkP5X2toYq7dZiNOc87FFAT6pMwHwYD
VR0jBBgwFoAUoP9rTvIuM4wvATPoG9qxrDyGF94wDQYJKoZIhvcNAQEFBQADggEB
AJriORcXS7vw/2MvD2cdPddVjn3Vy5vybsV9l+LearqjD1gy2NnRQHS0nGEC4sDo
v4YcQNV0cJ0O2rhAmrZ/6haWCWdv5gq/twKqNgoMpgHI+Pots+WtziPTFhVN6vJX
kBR47K6YwXdYYsl66c/Ae6cGtnqn6htE0UQQsWR3EwLs8/dl0oM8P6za7XMuMFr2
ZoTtlgwToQZtYrcPlrESoGflrK425c/nm7r5r8vgXg7R8HtIAqrzWqIXM/XxVvKD
5b7tKZba2Pzhwim1Z06u71Z6fM7DwPs+f+d/JnG/WPk292sl1X9jEMKKTiZCCjST
MJiItuHAm4/bZ3QB2jHbJqc=
-----END CERTIFICATE-----
